; Function Attrs: mustprogress nounwind uwtable
define hidden void @_ZN11StringDedup4Stat20report_process_startEv(ptr nocapture noundef nonnull align 8 dereferenceable(248) %0) local_unnamed_addr #2 align 2 {
  %2 = load volatile ptr, ptr getelementptr inbounds (i8, ptr @_ZN16LogTagSetMappingILN6LogTag4typeE148ELS1_114ELS1_142ELS1_0ELS1_0ELS1_0EE7_tagsetE, i64 56), align 8
  %.not.i = icmp eq ptr %2, null
  br i1 %.not.i, label %_ZN11StringDedup4Stat18report_phase_startEPKc.exit, label %3

3:                                                ; preds = %1
  tail call void (ptr, ...) @_ZN7LogImplILN6LogTag4typeE148ELS1_114ELS1_142ELS1_0ELS1_0ELS1_0EE5writeILN8LogLevel4typeE2EEEvPKcz(ptr noundef nonnull @.str.6, ptr noundef nonnull @.str.9)
  br label %_ZN11StringDedup4Stat18report_phase_startEPKc.exit

_ZN11StringDedup4Stat18report_phase_startEPKc.exit: ; preds = %1, %3
  %4 = tail call { i64, i64 } @_ZN29CompositeElapsedCounterSource3nowEv() #7
  %5 = extractvalue { i64, i64 } %4, 0
  %6 = extractvalue { i64, i64 } %4, 1
  %7 = getelementptr inbounds i8, ptr %0, i64 168
  store i64 %5, ptr %7, align 8
  %.sroa.2.0..sroa_idx.i = getelementptr inbounds i8, ptr %0, i64 176
  store i64 %6, ptr %.sroa.2.0..sroa_idx.i, align 8
  %8 = getelementptr inbounds i8, ptr %0, i64 112
  %9 = load i64, ptr %8, align 8
  %10 = add i64 %9, 1
  store i64 %10, ptr %8, align 8
  ret void
}